Certificate:
    Data:
        Version: 3 (0x2)
        Serial Number: 1 (0x1)
        Signature Algorithm: sha256WithRSAEncryption
        Issuer: C=US, ST=NY, L=NYC, O=Sinequa, OU=Consulting, CN=localhost
        Validity
            Not Before: Apr  3 16:36:17 2020 GMT
            Not After : Apr  3 16:36:17 2021 GMT
        Subject: C=US, ST=NY, L=NYC, O=Sinequa, OU=Consulting, CN=localhostCLIENT
        Subject Public Key Info:
            Public Key Algorithm: rsaEncryption
                RSA Public-Key: (1024 bit)
                Modulus:
                    00:b3:a2:2b:18:50:9e:14:d5:31:bd:73:a7:5c:66:
                    47:42:28:4d:48:16:87:28:1a:b6:aa:ec:44:67:53:
                    66:c5:0b:b6:0a:3c:63:29:6e:8f:49:7d:b7:27:0b:
                    e8:06:8d:11:a9:81:33:e3:67:92:29:36:75:53:ba:
                    78:12:e6:54:93:e4:2c:40:0c:90:59:11:d7:13:f9:
                    f6:2d:14:71:8c:35:a6:86:10:ea:92:be:18:4b:eb:
                    35:1d:09:f5:2c:ff:47:23:37:31:a6:37:02:93:9d:
                    d1:0b:aa:dc:95:3d:20:4a:7c:02:93:19:63:32:73:
                    77:2c:8c:e9:fa:94:af:b6:f1
                Exponent: 65537 (0x10001)
        X509v3 extensions:
            X509v3 Key Usage: 
                Digital Signature, Non Repudiation, Key Encipherment, Data Encipherment
            X509v3 Subject Alternative Name: 
                DNS:localhost, IP Address:127.0.0.1, URI:http://localhost/, URI:https://localhost/
            X509v3 Subject Key Identifier: 
                52:D9:F4:4F:29:B7:40:C6:6B:F2:BF:EF:1A:7D:D0:3B:99:D6:2A:F1
            X509v3 Authority Key Identifier: 
                keyid:8B:DC:97:A8:EF:FB:BC:72:0F:64:C4:2B:F0:35:D8:FB:3E:09:95:3E

            X509v3 Basic Constraints: 
                CA:TRUE
    Signature Algorithm: sha256WithRSAEncryption
         47:a6:72:c6:94:90:85:e6:6e:9e:2a:8f:b3:d6:a9:66:4d:19:
         b9:68:99:1f:9d:1d:fb:c3:ae:d6:b3:ad:0f:73:3a:25:25:34:
         6a:84:75:24:7d:2d:92:eb:70:8d:e5:67:5f:de:41:78:41:d3:
         87:76:2b:98:a9:34:b8:a1:e4:d4:b0:ea:fa:53:79:ab:21:c8:
         60:f6:79:46:67:53:ed:c0:eb:6a:3f:ab:84:90:7e:39:2e:4f:
         a0:12:7f:ac:d8:3a:ba:b9:19:8e:90:75:33:92:ed:eb:a2:66:
         9d:0e:81:90:70:d8:cc:96:1b:1e:7f:7a:21:04:07:f6:b0:2d:
         4d:54
-----BEGIN CERTIFICATE-----
MIIC5DCCAk2gAwIBAgIBATANBgkqhkiG9w0BAQsFADBjMQswCQYDVQQGEwJVUzEL
MAkGA1UECAwCTlkxDDAKBgNVBAcMA05ZQzEQMA4GA1UECgwHU2luZXF1YTETMBEG
A1UECwwKQ29uc3VsdGluZzESMBAGA1UEAwwJbG9jYWxob3N0MB4XDTIwMDQwMzE2
MzYxN1oXDTIxMDQwMzE2MzYxN1owaTELMAkGA1UEBhMCVVMxCzAJBgNVBAgMAk5Z
MQwwCgYDVQQHDANOWUMxEDAOBgNVBAoMB1NpbmVxdWExEzARBgNVBAsMCkNvbnN1
bHRpbmcxGDAWBgNVBAMMD2xvY2FsaG9zdENMSUVOVDCBnzANBgkqhkiG9w0BAQEF
AAOBjQAwgYkCgYEAs6IrGFCeFNUxvXOnXGZHQihNSBaHKBq2quxEZ1NmxQu2Cjxj
KW6PSX23JwvoBo0RqYEz42eSKTZ1U7p4EuZUk+QsQAyQWRHXE/n2LRRxjDWmhhDq
kr4YS+s1HQn1LP9HIzcxpjcCk53RC6rclT0gSnwCkxljMnN3LIzp+pSvtvECAwEA
AaOBoTCBnjALBgNVHQ8EBAMCBPAwQQYDVR0RBDowOIIJbG9jYWxob3N0hwR/AAAB
hhFodHRwOi8vbG9jYWxob3N0L4YSaHR0cHM6Ly9sb2NhbGhvc3QvMB0GA1UdDgQW
BBRS2fRPKbdAxmvyv+8afdA7mdYq8TAfBgNVHSMEGDAWgBSL3Jeo7/u8cg9kxCvw
Ndj7PgmVPjAMBgNVHRMEBTADAQH/MA0GCSqGSIb3DQEBCwUAA4GBAEemcsaUkIXm
bp4qj7PWqWZNGblomR+dHfvDrtazrQ9zOiUlNGqEdSR9LZLrcI3lZ1/eQXhB04d2
K5ipNLih5NSw6vpTeashyGD2eUZnU+3A62o/q4SQfjkuT6ASf6zYOrq5GY6QdTOS
7euiZp0OgZBw2MyWGx5/eiEEB/awLU1U
-----END CERTIFICATE-----
