Certificate:
    Data:
        Version: 3 (0x2)
        Serial Number: 0 (0x0)
        Signature Algorithm: sha256WithRSAEncryption
        Issuer: C=US, ST=NY, L=NYC, O=Sinequa, OU=Consulting, CN=localhost
        Validity
            Not Before: Apr  3 16:33:37 2020 GMT
            Not After : Apr  3 16:33:37 2021 GMT
        Subject: C=US, ST=NY, L=NYC, O=Sinequa, OU=Consulting, CN=localhost
        Subject Public Key Info:
            Public Key Algorithm: rsaEncryption
                RSA Public-Key: (1024 bit)
                Modulus:
                    00:d3:12:ca:f0:ed:c4:83:0e:88:70:f7:b5:a9:b4:
                    9e:e7:2f:c5:de:9a:61:bc:30:dd:79:48:52:d8:8e:
                    2a:04:51:41:f1:7d:a4:04:e4:33:4c:42:4e:8e:9a:
                    6c:49:83:a1:7c:ed:b6:93:3d:4f:3c:8f:02:3d:cf:
                    ca:96:35:e3:fc:d3:ba:5c:fc:df:78:22:b2:8a:e6:
                    22:f8:6b:f0:d5:26:45:39:8e:35:8c:41:95:e2:52:
                    40:90:c5:99:8f:02:50:67:8f:8c:49:58:e9:bc:f2:
                    73:19:14:1a:c4:59:a4:0a:06:9a:67:61:c6:34:13:
                    76:1e:fb:3e:cd:51:0a:26:51
                Exponent: 65537 (0x10001)
        X509v3 extensions:
            X509v3 Key Usage: 
                Digital Signature, Non Repudiation, Key Encipherment, Data Encipherment
            X509v3 Subject Alternative Name: 
                DNS:localhost, IP Address:127.0.0.1, URI:http://localhost/, URI:https://localhost/
            X509v3 Subject Key Identifier: 
                2E:54:B9:01:66:E1:EC:D2:2C:C2:B3:73:3E:F6:92:11:B2:6A:DB:E3
            X509v3 Authority Key Identifier: 
                keyid:8B:DC:97:A8:EF:FB:BC:72:0F:64:C4:2B:F0:35:D8:FB:3E:09:95:3E

            X509v3 Basic Constraints: 
                CA:TRUE
    Signature Algorithm: sha256WithRSAEncryption
         92:c4:c9:47:97:1d:5e:11:44:24:06:68:42:6c:52:7f:b8:6a:
         b6:c9:e8:11:03:c2:0b:b3:21:5e:66:4a:7f:7d:5c:9a:48:c5:
         4f:2c:e3:6e:68:e3:44:da:c7:df:9e:25:62:f5:67:67:26:4c:
         e2:e3:7a:69:cf:78:58:f6:5a:38:9b:ed:d0:28:33:fe:cd:f1:
         fc:df:ad:bd:f3:58:0f:f1:94:59:d2:1d:ac:44:c1:8a:28:cc:
         96:12:98:cd:7b:d9:5d:9c:ae:39:e3:9e:af:af:84:7d:f9:fd:
         a1:f0:4a:37:2d:3c:ee:30:01:87:e0:dd:4c:9d:3f:99:6e:fc:
         88:e6
-----BEGIN CERTIFICATE-----
MIIC3jCCAkegAwIBAgIBADANBgkqhkiG9w0BAQsFADBjMQswCQYDVQQGEwJVUzEL
MAkGA1UECAwCTlkxDDAKBgNVBAcMA05ZQzEQMA4GA1UECgwHU2luZXF1YTETMBEG
A1UECwwKQ29uc3VsdGluZzESMBAGA1UEAwwJbG9jYWxob3N0MB4XDTIwMDQwMzE2
MzMzN1oXDTIxMDQwMzE2MzMzN1owYzELMAkGA1UEBhMCVVMxCzAJBgNVBAgMAk5Z
MQwwCgYDVQQHDANOWUMxEDAOBgNVBAoMB1NpbmVxdWExEzARBgNVBAsMCkNvbnN1
bHRpbmcxEjAQBgNVBAMMCWxvY2FsaG9zdDCBnzANBgkqhkiG9w0BAQEFAAOBjQAw
gYkCgYEA0xLK8O3Egw6IcPe1qbSe5y/F3pphvDDdeUhS2I4qBFFB8X2kBOQzTEJO
jppsSYOhfO22kz1PPI8CPc/KljXj/NO6XPzfeCKyiuYi+Gvw1SZFOY41jEGV4lJA
kMWZjwJQZ4+MSVjpvPJzGRQaxFmkCgaaZ2HGNBN2Hvs+zVEKJlECAwEAAaOBoTCB
njALBgNVHQ8EBAMCBPAwQQYDVR0RBDowOIIJbG9jYWxob3N0hwR/AAABhhFodHRw
Oi8vbG9jYWxob3N0L4YSaHR0cHM6Ly9sb2NhbGhvc3QvMB0GA1UdDgQWBBQuVLkB
ZuHs0izCs3M+9pIRsmrb4zAfBgNVHSMEGDAWgBSL3Jeo7/u8cg9kxCvwNdj7PgmV
PjAMBgNVHRMEBTADAQH/MA0GCSqGSIb3DQEBCwUAA4GBAJLEyUeXHV4RRCQGaEJs
Un+4arbJ6BEDwguzIV5mSn99XJpIxU8s425o40Tax9+eJWL1Z2cmTOLjemnPeFj2
Wjib7dAoM/7N8fzfrb3zWA/xlFnSHaxEwYoozJYSmM172V2crjnjnq+vhH35/aHw
SjctPO4wAYfg3UydP5lu/Ijm
-----END CERTIFICATE-----
